target datalayout = "e-m:e-p270:32:32-p271:32:32-p272:64:64-i64:64-i128:128-f80:128-n8:16:32:64-S128"
target triple = "x86_64-pc-linux-gnu"

%struct.darktable_t = type { %struct.dt_codepath_t, i32, i32, ptr, ptr, ptr, ptr, ptr, ptr, ptr, ptr, ptr, ptr, ptr, ptr, ptr, ptr, ptr, ptr, ptr, ptr, ptr, ptr, ptr, ptr, ptr, ptr, ptr, ptr, ptr, [64 x %struct.dt_pthread_mutex_t], %struct.dt_pthread_mutex_t, %struct.dt_pthread_mutex_t, %struct.dt_pthread_mutex_t, %struct.dt_pthread_mutex_t, %struct.dt_pthread_mutex_t, ptr, ptr, ptr, ptr, ptr, ptr, ptr, ptr, ptr, ptr, ptr, ptr, ptr, %struct.dt_lua_state_t, ptr, double, ptr, i32, [47 x i32], i32, i32, ptr, ptr, %struct.dt_sys_resources_t, %struct.dt_backthumb_t, %struct.dt_gimp_t }
%struct.dt_codepath_t = type { i8, [3 x i8] }
%struct.dt_pthread_mutex_t = type { %union.pthread_mutex_t }
%union.pthread_mutex_t = type { %struct.__pthread_mutex_s }
%struct.__pthread_mutex_s = type { i32, i32, i32, i32, i32, i16, i16, %struct.__pthread_internal_list }
%struct.__pthread_internal_list = type { ptr, ptr }
%struct.dt_lua_state_t = type { i32 }
%struct.dt_sys_resources_t = type { i64, i64, ptr, ptr, i32 }
%struct.dt_backthumb_t = type { double, double, i32, i32, i32, i32 }
%struct.dt_gimp_t = type { i32, ptr, ptr, i32, i32 }
%struct.dt_gui_gtk_t = type { ptr, %struct.dt_gui_widgets_t, %struct.dt_gui_scrollbars_t, i32, ptr, i32, [39 x %struct._GdkRGBA], i32, i32, i32, i32, i32, double, double, double, double, ptr, double, double, double, double, i32, i32, [4096 x i8], i32, i32, i32, %struct.dt_pthread_mutex_t }
%struct.dt_gui_widgets_t = type { ptr, ptr, ptr, ptr, i32, i32, i32 }
%struct.dt_gui_scrollbars_t = type { ptr, ptr, i32 }
%struct._GdkRGBA = type { double, double, double, double }
%struct._cairo_rectangle_int = type { i32, i32, i32, i32 }
%struct._GtkBorder = type { i16, i16, i16, i16 }
%struct._GtkDarktableButton = type { %struct._GtkButton, ptr, i32, ptr, %struct._GdkRGBA, %struct._GdkRGBA, ptr }
%struct._GtkButton = type { %struct._GtkBin, ptr }
%struct._GtkBin = type { %struct._GtkContainer, ptr }
%struct._GtkContainer = type { %struct._GtkWidget, ptr }
%struct._GtkWidget = type { %struct._GObject, ptr }
%struct._GObject = type { %struct._GTypeInstance, i32, ptr }
%struct._GTypeInstance = type { ptr }

@darktable = external global %struct.darktable_t, align 8

; Function Attrs: inlinehint nounwind uwtable
define internal ptr @DTGTK_BUTTON(ptr noundef %0) #6 {
  %2 = alloca ptr, align 8
  store ptr %0, ptr %2, align 8, !tbaa !92
  %3 = load ptr, ptr %2, align 8, !tbaa !92
  %4 = call i64 @dtgtk_button_get_type()
  %5 = call ptr @g_type_check_instance_cast(ptr noundef %3, i64 noundef %4)
  ret ptr %5
}

; Function Attrs: nounwind uwtable
define internal void @_main_icons_register_size(ptr noundef %0, ptr noundef %1, ptr noundef %2) #0 {
  %4 = alloca ptr, align 8
  %5 = alloca ptr, align 8
  %6 = alloca ptr, align 8
  %7 = alloca i32, align 4
  %8 = alloca ptr, align 8
  %9 = alloca %struct._GtkBorder, align 2
  %10 = alloca %struct._GtkBorder, align 2
  %11 = alloca %struct._GtkBorder, align 2
  %12 = alloca i32, align 4
  %13 = alloca ptr, align 8
  %14 = alloca %struct._GtkBorder, align 2
  store ptr %0, ptr %4, align 8, !tbaa !68
  store ptr %1, ptr %5, align 8, !tbaa !118
  store ptr %2, ptr %6, align 8, !tbaa !92
  call void @llvm.lifetime.start.p0(i64 4, ptr %7) #9
  %15 = load ptr, ptr %4, align 8, !tbaa !68
  %16 = call i32 @gtk_widget_get_state_flags(ptr noundef %15)
  store i32 %16, ptr %7, align 4, !tbaa !97
  call void @llvm.lifetime.start.p0(i64 8, ptr %8) #9
  %17 = load ptr, ptr %4, align 8, !tbaa !68
  %18 = call ptr @gtk_widget_get_style_context(ptr noundef %17)
  store ptr %18, ptr %8, align 8, !tbaa !120
  call void @llvm.lifetime.start.p0(i64 8, ptr %9) #9
  call void @llvm.lifetime.start.p0(i64 8, ptr %10) #9
  call void @llvm.lifetime.start.p0(i64 8, ptr %11) #9
  %19 = load ptr, ptr %8, align 8, !tbaa !120
  %20 = load i32, ptr %7, align 4, !tbaa !97
  call void @gtk_style_context_get_margin(ptr noundef %19, i32 noundef %20, ptr noundef %9)
  %21 = load ptr, ptr %8, align 8, !tbaa !120
  %22 = load i32, ptr %7, align 4, !tbaa !97
  call void @gtk_style_context_get_border(ptr noundef %21, i32 noundef %22, ptr noundef %10)
  %23 = load ptr, ptr %8, align 8, !tbaa !120
  %24 = load i32, ptr %7, align 4, !tbaa !97
  call void @gtk_style_context_get_padding(ptr noundef %23, i32 noundef %24, ptr noundef %11)
  call void @llvm.lifetime.start.p0(i64 4, ptr %12) #9
  %25 = load ptr, ptr %5, align 8, !tbaa !118
  %26 = getelementptr inbounds nuw %struct._cairo_rectangle_int, ptr %25, i32 0, i32 2
  %27 = load i32, ptr %26, align 4, !tbaa !116
  %28 = getelementptr inbounds nuw %struct._GtkBorder, ptr %9, i32 0, i32 0
  %29 = load i16, ptr %28, align 2, !tbaa !122
  %30 = sext i16 %29 to i32
  %31 = sub nsw i32 %27, %30
  %32 = getelementptr inbounds nuw %struct._GtkBorder, ptr %9, i32 0, i32 1
  %33 = load i16, ptr %32, align 2, !tbaa !125
  %34 = sext i16 %33 to i32
  %35 = sub nsw i32 %31, %34
  %36 = getelementptr inbounds nuw %struct._GtkBorder, ptr %10, i32 0, i32 0
  %37 = load i16, ptr %36, align 2, !tbaa !122
  %38 = sext i16 %37 to i32
  %39 = sub nsw i32 %35, %38
  %40 = getelementptr inbounds nuw %struct._GtkBorder, ptr %10, i32 0, i32 1
  %41 = load i16, ptr %40, align 2, !tbaa !125
  %42 = sext i16 %41 to i32
  %43 = sub nsw i32 %39, %42
  %44 = getelementptr inbounds nuw %struct._GtkBorder, ptr %11, i32 0, i32 0
  %45 = load i16, ptr %44, align 2, !tbaa !122
  %46 = sext i16 %45 to i32
  %47 = sub nsw i32 %43, %46
  %48 = getelementptr inbounds nuw %struct._GtkBorder, ptr %11, i32 0, i32 1
  %49 = load i16, ptr %48, align 2, !tbaa !125
  %50 = sext i16 %49 to i32
  %51 = sub nsw i32 %47, %50
  store i32 %51, ptr %12, align 4, !tbaa !97
  call void @llvm.lifetime.start.p0(i64 8, ptr %13) #9
  %52 = load ptr, ptr %4, align 8, !tbaa !68
  %53 = call ptr @DTGTK_BUTTON(ptr noundef %52)
  %54 = getelementptr inbounds nuw %struct._GtkDarktableButton, ptr %53, i32 0, i32 6
  %55 = load ptr, ptr %54, align 8, !tbaa !126
  %56 = call ptr @gtk_widget_get_style_context(ptr noundef %55)
  store ptr %56, ptr %13, align 8, !tbaa !120
  call void @llvm.lifetime.start.p0(i64 8, ptr %14) #9
  %57 = load ptr, ptr %13, align 8, !tbaa !120
  %58 = load i32, ptr %7, align 4, !tbaa !97
  call void @gtk_style_context_get_margin(ptr noundef %57, i32 noundef %58, ptr noundef %14)
  %59 = load i32, ptr %12, align 4, !tbaa !97
  %60 = sitofp i32 %59 to float
  %61 = fpext reassoc nsz arcp contract afn float %60 to double
  %62 = getelementptr inbounds nuw %struct._GtkBorder, ptr %14, i32 0, i32 0
  %63 = load i16, ptr %62, align 2, !tbaa !122
  %64 = sext i16 %63 to i32
  %65 = getelementptr inbounds nuw %struct._GtkBorder, ptr %14, i32 0, i32 1
  %66 = load i16, ptr %65, align 2, !tbaa !125
  %67 = sext i16 %66 to i32
  %68 = add nsw i32 %64, %67
  %69 = sitofp i32 %68 to float
  %70 = fdiv reassoc nsz arcp contract afn float %69, 1.000000e+02
  %71 = fpext reassoc nsz arcp contract afn float %70 to double
  %72 = fsub reassoc nsz arcp contract afn double 1.000000e+00, %71
  %73 = fmul reassoc nsz arcp contract afn double %61, %72
  %74 = call reassoc nsz arcp contract afn double @llvm.round.f64(double %73)
  %75 = fptosi double %74 to i32
  store i32 %75, ptr %12, align 4, !tbaa !97
  %76 = load i32, ptr %12, align 4, !tbaa !97
  %77 = load ptr, ptr getelementptr inbounds nuw (%struct.darktable_t, ptr @darktable, i32 0, i32 14), align 8, !tbaa !60
  %78 = getelementptr inbounds nuw %struct.dt_gui_gtk_t, ptr %77, i32 0, i32 22
  store i32 %76, ptr %78, align 4, !tbaa !141
  call void @llvm.lifetime.end.p0(i64 8, ptr %14) #9
  call void @llvm.lifetime.end.p0(i64 8, ptr %13) #9
  call void @llvm.lifetime.end.p0(i64 4, ptr %12) #9
  call void @llvm.lifetime.end.p0(i64 8, ptr %11) #9
  call void @llvm.lifetime.end.p0(i64 8, ptr %10) #9
  call void @llvm.lifetime.end.p0(i64 8, ptr %9) #9
  call void @llvm.lifetime.end.p0(i64 8, ptr %8) #9
  call void @llvm.lifetime.end.p0(i64 4, ptr %7) #9
  ret void
}