; Function Attrs: nounwind uwtable
define internal void @_main_icons_register_size(ptr noundef %0, ptr noundef readonly captures(none) %1, ptr readnone captures(none) %2) #1 {
  %4 = alloca %struct._GtkBorder, align 2
  %5 = alloca %struct._GtkBorder, align 2
  %6 = alloca %struct._GtkBorder, align 2
  %7 = alloca %struct._GtkBorder, align 2
  %8 = tail call i32 @gtk_widget_get_state_flags(ptr noundef %0) #10
  %9 = tail call ptr @gtk_widget_get_style_context(ptr noundef %0) #10
  call void @llvm.lifetime.start.p0(i64 8, ptr nonnull %4) #10
  call void @llvm.lifetime.start.p0(i64 8, ptr nonnull %5) #10
  call void @llvm.lifetime.start.p0(i64 8, ptr nonnull %6) #10
  call void @gtk_style_context_get_margin(ptr noundef %9, i32 noundef %8, ptr noundef nonnull %4) #10
  call void @gtk_style_context_get_border(ptr noundef %9, i32 noundef %8, ptr noundef nonnull %5) #10
  call void @gtk_style_context_get_padding(ptr noundef %9, i32 noundef %8, ptr noundef nonnull %6) #10
  %10 = getelementptr inbounds nuw i8, ptr %1, i64 8
  %11 = load i32, ptr %10, align 4, !tbaa !106
  %12 = load i16, ptr %4, align 2, !tbaa !109
  %13 = sext i16 %12 to i32
  %14 = getelementptr inbounds nuw i8, ptr %4, i64 2
  %15 = load i16, ptr %14, align 2, !tbaa !112
  %16 = sext i16 %15 to i32
  %17 = load i16, ptr %5, align 2, !tbaa !109
  %18 = sext i16 %17 to i32
  %19 = getelementptr inbounds nuw i8, ptr %5, i64 2
  %20 = load i16, ptr %19, align 2, !tbaa !112
  %21 = sext i16 %20 to i32
  %22 = load i16, ptr %6, align 2, !tbaa !109
  %23 = sext i16 %22 to i32
  %24 = getelementptr inbounds nuw i8, ptr %6, i64 2
  %25 = load i16, ptr %24, align 2, !tbaa !112
  %26 = sext i16 %25 to i32
  %27 = add nsw i32 %13, %16
  %28 = add nsw i32 %27, %18
  %29 = add nsw i32 %28, %21
  %30 = add nsw i32 %29, %23
  %31 = add nsw i32 %30, %26
  %32 = sub i32 %11, %31
  %33 = call i64 @dtgtk_button_get_type() #10
  %34 = call ptr @g_type_check_instance_cast(ptr noundef %0, i64 noundef %33) #10
  %35 = getelementptr inbounds nuw i8, ptr %34, i64 144
  %36 = load ptr, ptr %35, align 8, !tbaa !113
  %37 = call ptr @gtk_widget_get_style_context(ptr noundef %36) #10
  call void @llvm.lifetime.start.p0(i64 8, ptr nonnull %7) #10
  call void @gtk_style_context_get_margin(ptr noundef %37, i32 noundef %8, ptr noundef nonnull %7) #10
  %38 = sitofp i32 %32 to float
  %39 = fpext reassoc nsz arcp contract afn float %38 to double
  %40 = load i16, ptr %7, align 2, !tbaa !109
  %41 = sext i16 %40 to i32
  %42 = getelementptr inbounds nuw i8, ptr %7, i64 2
  %43 = load i16, ptr %42, align 2, !tbaa !112
  %44 = sext i16 %43 to i32
  %45 = add nsw i32 %44, %41
  %46 = sitofp i32 %45 to float
  %47 = fmul reassoc nsz arcp contract afn float %46, 0x3F847AE140000000
  %48 = fpext reassoc nsz arcp contract afn float %47 to double
  %49 = fsub reassoc nsz arcp contract afn double 1.000000e+00, %48
  %50 = fmul reassoc nsz arcp contract afn double %49, %39
  %51 = call reassoc nsz arcp contract afn double @llvm.round.f64(double %50)
  %52 = fptosi double %51 to i32
  %53 = load ptr, ptr getelementptr inbounds nuw (i8, ptr @darktable, i64 104), align 8, !tbaa !56
  %54 = getelementptr inbounds nuw i8, ptr %53, i64 1452
  store i32 %52, ptr %54, align 4, !tbaa !128
  call void @llvm.lifetime.end.p0(i64 8, ptr nonnull %7) #10
  call void @llvm.lifetime.end.p0(i64 8, ptr nonnull %6) #10
  call void @llvm.lifetime.end.p0(i64 8, ptr nonnull %5) #10
  call void @llvm.lifetime.end.p0(i64 8, ptr nonnull %4) #10
  ret void
}